target datalayout = "e-m:e-p270:32:32-p271:32:32-p272:64:64-i64:64-i128:128-f80:128-n8:16:32:64-S128"
target triple = "x86_64-pc-linux-gnu"

@.str.8 = private unnamed_addr constant [7 x i8] c"thread\00", align 1

; Function Attrs: nounwind uwtable
define internal ptr @getco(ptr noundef %0) #0 {
  %2 = alloca ptr, align 8
  %3 = alloca ptr, align 8
  store ptr %0, ptr %2, align 8, !tbaa !4
  call void @llvm.lifetime.start.p0(i64 8, ptr %3) #4
  %4 = load ptr, ptr %2, align 8, !tbaa !4
  %5 = call ptr @lua_tothread(ptr noundef %4, i32 noundef 1)
  store ptr %5, ptr %3, align 8, !tbaa !4
  %6 = load ptr, ptr %3, align 8, !tbaa !4
  %7 = icmp ne ptr %6, null
  %8 = zext i1 %7 to i32
  %9 = sext i32 %8 to i64
  %10 = call i64 @llvm.expect.i64(i64 %9, i64 1)
  %11 = icmp ne i64 %10, 0
  br i1 %11, label %15, label %12

12:                                               ; preds = %1
  %13 = load ptr, ptr %2, align 8, !tbaa !4
  %14 = call i32 @luaL_typeerror(ptr noundef %13, i32 noundef 1, ptr noundef @.str.8)
  br label %15

15:                                               ; preds = %12, %1
  %16 = load ptr, ptr %3, align 8, !tbaa !4
  call void @llvm.lifetime.end.p0(i64 8, ptr %3) #4
  ret ptr %16
}

; Function Attrs: nounwind uwtable
define internal i32 @luaB_yieldable(ptr noundef %0) #0 {
  %2 = alloca ptr, align 8
  %3 = alloca ptr, align 8
  store ptr %0, ptr %2, align 8, !tbaa !4
  call void @llvm.lifetime.start.p0(i64 8, ptr %3) #4
  %4 = load ptr, ptr %2, align 8, !tbaa !4
  %5 = call i32 @lua_type(ptr noundef %4, i32 noundef 1)
  %6 = icmp eq i32 %5, -1
  br i1 %6, label %7, label %9

7:                                                ; preds = %1
  %8 = load ptr, ptr %2, align 8, !tbaa !4
  br label %12

9:                                                ; preds = %1
  %10 = load ptr, ptr %2, align 8, !tbaa !4
  %11 = call ptr @getco(ptr noundef %10)
  br label %12

12:                                               ; preds = %9, %7
  %13 = phi ptr [ %8, %7 ], [ %11, %9 ]
  store ptr %13, ptr %3, align 8, !tbaa !4
  %14 = load ptr, ptr %2, align 8, !tbaa !4
  %15 = load ptr, ptr %3, align 8, !tbaa !4
  %16 = call i32 @lua_isyieldable(ptr noundef %15)
  call void @lua_pushboolean(ptr noundef %14, i32 noundef %16)
  call void @llvm.lifetime.end.p0(i64 8, ptr %3) #4
  ret i32 1
}