; Function Attrs: nounwind uwtable
define internal noundef i32 @luaB_yieldable(ptr noundef %0) #0 {
  %2 = tail call i32 @lua_type(ptr noundef %0, i32 noundef 1) #3
  %3 = icmp eq i32 %2, -1
  br i1 %3, label %getco.exit, label %4

4:                                                ; preds = %1
  %5 = tail call ptr @lua_tothread(ptr noundef %0, i32 noundef 1) #3
  %.not.i = icmp eq ptr %5, null
  br i1 %.not.i, label %6, label %getco.exit, !prof !4

6:                                                ; preds = %4
  %7 = tail call i32 @luaL_typeerror(ptr noundef %0, i32 noundef 1, ptr noundef nonnull @.str.8) #3
  br label %getco.exit

getco.exit:                                       ; preds = %6, %4, %1
  %8 = phi ptr [ %0, %1 ], [ %5, %4 ], [ null, %6 ]
  %9 = tail call i32 @lua_isyieldable(ptr noundef %8) #3
  tail call void @lua_pushboolean(ptr noundef %0, i32 noundef %9) #3
  ret i32 1
}